; ModuleID = '60/366.c'
source_filename = "60/366.c"
target datalayout = "e-m:e-p270:32:32-p271:32:32-p272:64:64-i64:64-f80:128-n8:16:32:64-S128"
target triple = "x86_64-pc-linux-gnu"

@.str = private unnamed_addr constant [3 x i8] c"%d\00", align 1
@.str.1 = private unnamed_addr constant [7 x i8] c"empty\0A\00", align 1
@.str.2 = private unnamed_addr constant [7 x i8] c"%d %d\0A\00", align 1

; Function Attrs: noinline nounwind uwtable
define dso_local void @main() #0 {
  %1 = alloca i32, align 4
  %2 = alloca i32, align 4
  %3 = alloca i32, align 4
  %4 = alloca i32, align 4
  %5 = alloca i32, align 4
  store i32 3, i32* %4, align 4
  %6 = call i32 (i8*, ...) @__isoc99_scanf(i8* getelementptr inbounds ([3 x i8], [3 x i8]* @.str, i64 0, i64 0), i32* %1)
  %7 = load i32, i32* %1, align 4
  %8 = icmp slt i32 %7, 5
  br i1 %8, label %9, label %11

9:                                                ; preds = %0
  %10 = call i32 (i8*, ...) @printf(i8* getelementptr inbounds ([7 x i8], [7 x i8]* @.str.1, i64 0, i64 0))
  br label %52

11:                                               ; preds = %0
  store i32 3, i32* %3, align 4
  br label %12

12:                                               ; preds = %48, %11
  %13 = load i32, i32* %3, align 4
  %14 = load i32, i32* %1, align 4
  %15 = icmp sle i32 %13, %14
  br i1 %15, label %16, label %51

16:                                               ; preds = %12
  store i32 1, i32* %5, align 4
  store i32 3, i32* %2, align 4
  br label %17

17:                                               ; preds = %30, %16
  %18 = load i32, i32* %2, align 4
  %19 = load i32, i32* %2, align 4
  %20 = mul nsw i32 %18, %19
  %21 = load i32, i32* %3, align 4
  %22 = icmp sle i32 %20, %21
  br i1 %22, label %23, label %33

23:                                               ; preds = %17
  %24 = load i32, i32* %3, align 4
  %25 = load i32, i32* %2, align 4
  %26 = srem i32 %24, %25
  %27 = icmp eq i32 %26, 0
  br i1 %27, label %28, label %29

28:                                               ; preds = %23
  store i32 0, i32* %5, align 4
  br label %33

29:                                               ; preds = %23
  br label %30

30:                                               ; preds = %29
  %31 = load i32, i32* %2, align 4
  %32 = add nsw i32 %31, 2
  store i32 %32, i32* %2, align 4
  br label %17

33:                                               ; preds = %28, %17
  %34 = load i32, i32* %5, align 4
  %35 = icmp eq i32 %34, 1
  br i1 %35, label %36, label %47

36:                                               ; preds = %33
  %37 = load i32, i32* %3, align 4
  %38 = load i32, i32* %4, align 4
  %39 = sub nsw i32 %37, %38
  %40 = icmp eq i32 %39, 2
  br i1 %40, label %41, label %45

41:                                               ; preds = %36
  %42 = load i32, i32* %4, align 4
  %43 = load i32, i32* %3, align 4
  %44 = call i32 (i8*, ...) @printf(i8* getelementptr inbounds ([7 x i8], [7 x i8]* @.str.2, i64 0, i64 0), i32 %42, i32 %43)
  br label %45

45:                                               ; preds = %41, %36
  %46 = load i32, i32* %3, align 4
  store i32 %46, i32* %4, align 4
  br label %47

47:                                               ; preds = %45, %33
  br label %48

48:                                               ; preds = %47
  %49 = load i32, i32* %3, align 4
  %50 = add nsw i32 %49, 2
  store i32 %50, i32* %3, align 4
  br label %12

51:                                               ; preds = %12
  br label %52

52:                                               ; preds = %51, %9
  ret void
}

declare dso_local i32 @__isoc99_scanf(i8*, ...) #1

declare dso_local i32 @printf(i8*, ...) #1


!llvm.module.flags = !{!0}
!llvm.ident = !{!1}

!0 = !{i32 1, !"wchar_size", i32 4}
!1 = !{!"clang version 10.0.0-4ubuntu1 "}
